target datalayout = "e-m:e-p270:32:32-p271:32:32-p272:64:64-i64:64-i128:128-f80:128-n8:16:32:64-S128"
target triple = "x86_64-pc-linux-gnu"

%struct.AVBSFContext = type { ptr, ptr, ptr, ptr, ptr, %struct.AVRational, %struct.AVRational }
%struct.AVRational = type { i32, i32 }
%struct.FilterUnitsContext = type { ptr, ptr, %struct.CodedBitstreamFragment, ptr, ptr, i32, i32, i32, ptr, i32, i8 }
%struct.CodedBitstreamFragment = type { ptr, i64, i64, ptr, i32, i32, ptr }
%struct.CodedBitstreamUnit = type { i32, ptr, i64, i64, ptr, ptr, ptr }

@.str.32 = private unnamed_addr constant [24 x i8] c"Failed to read packet.\0A\00", align 1
@.str.33 = private unnamed_addr constant [25 x i8] c"Failed to write packet.\0A\00", align 1

; Function Attrs: nounwind uwtable
define internal i32 @filter_units_filter(ptr noundef %0, ptr noundef %1) #0 {
  %3 = alloca i32, align 4
  %4 = alloca ptr, align 8
  %5 = alloca ptr, align 8
  %6 = alloca ptr, align 8
  %7 = alloca ptr, align 8
  %8 = alloca i32, align 4
  %9 = alloca i32, align 4
  %10 = alloca i32, align 4
  %11 = alloca i32, align 4
  store ptr %0, ptr %4, align 8, !tbaa !4
  store ptr %1, ptr %5, align 8, !tbaa !48
  call void @llvm.lifetime.start.p0(i64 8, ptr %6) #4
  %12 = load ptr, ptr %4, align 8, !tbaa !4
  %13 = getelementptr inbounds nuw %struct.AVBSFContext, ptr %12, i32 0, i32 2
  %14 = load ptr, ptr %13, align 8, !tbaa !9
  store ptr %14, ptr %6, align 8, !tbaa !16
  call void @llvm.lifetime.start.p0(i64 8, ptr %7) #4
  %15 = load ptr, ptr %6, align 8, !tbaa !16
  %16 = getelementptr inbounds nuw %struct.FilterUnitsContext, ptr %15, i32 0, i32 2
  store ptr %16, ptr %7, align 8, !tbaa !45
  call void @llvm.lifetime.start.p0(i64 4, ptr %8) #4
  call void @llvm.lifetime.start.p0(i64 4, ptr %9) #4
  call void @llvm.lifetime.start.p0(i64 4, ptr %10) #4
  %17 = load ptr, ptr %4, align 8, !tbaa !4
  %18 = load ptr, ptr %5, align 8, !tbaa !48
  %19 = call i32 @ff_bsf_get_packet_ref(ptr noundef %17, ptr noundef %18)
  store i32 %19, ptr %8, align 4, !tbaa !30
  %20 = load i32, ptr %8, align 4, !tbaa !30
  %21 = icmp slt i32 %20, 0
  br i1 %21, label %22, label %24

22:                                               ; preds = %2
  %23 = load i32, ptr %8, align 4, !tbaa !30
  store i32 %23, ptr %3, align 4
  store i32 1, ptr %11, align 4
  br label %144

24:                                               ; preds = %2
  %25 = load ptr, ptr %6, align 8, !tbaa !16
  %26 = getelementptr inbounds nuw %struct.FilterUnitsContext, ptr %25, i32 0, i32 10
  %27 = load i8, ptr %26, align 4, !tbaa !32, !range !50, !noundef !51
  %28 = trunc i8 %27 to i1
  br i1 %28, label %29, label %30

29:                                               ; preds = %24
  store i32 0, ptr %3, align 4
  store i32 1, ptr %11, align 4
  br label %144

30:                                               ; preds = %24
  %31 = load ptr, ptr %6, align 8, !tbaa !16
  %32 = getelementptr inbounds nuw %struct.FilterUnitsContext, ptr %31, i32 0, i32 1
  %33 = load ptr, ptr %32, align 8, !tbaa !39
  %34 = load ptr, ptr %7, align 8, !tbaa !45
  %35 = load ptr, ptr %5, align 8, !tbaa !48
  %36 = call i32 @ff_cbs_read_packet(ptr noundef %33, ptr noundef %34, ptr noundef %35)
  store i32 %36, ptr %8, align 4, !tbaa !30
  %37 = load i32, ptr %8, align 4, !tbaa !30
  %38 = icmp slt i32 %37, 0
  br i1 %38, label %39, label %41

39:                                               ; preds = %30
  %40 = load ptr, ptr %4, align 8, !tbaa !4
  call void (ptr, i32, ptr, ...) @av_log(ptr noundef %40, i32 noundef 16, ptr noundef @.str.32)
  br label %136

41:                                               ; preds = %30
  %42 = load ptr, ptr %6, align 8, !tbaa !16
  %43 = getelementptr inbounds nuw %struct.FilterUnitsContext, ptr %42, i32 0, i32 1
  %44 = load ptr, ptr %43, align 8, !tbaa !39
  %45 = load ptr, ptr %7, align 8, !tbaa !45
  %46 = load ptr, ptr %6, align 8, !tbaa !16
  %47 = getelementptr inbounds nuw %struct.FilterUnitsContext, ptr %46, i32 0, i32 5
  %48 = load i32, ptr %47, align 8, !tbaa !31
  %49 = load ptr, ptr %6, align 8, !tbaa !16
  %50 = getelementptr inbounds nuw %struct.FilterUnitsContext, ptr %49, i32 0, i32 6
  %51 = load i32, ptr %50, align 4, !tbaa !52
  call void @ff_cbs_discard_units(ptr noundef %44, ptr noundef %45, i32 noundef %48, i32 noundef %51)
  %52 = load ptr, ptr %6, align 8, !tbaa !16
  %53 = getelementptr inbounds nuw %struct.FilterUnitsContext, ptr %52, i32 0, i32 7
  %54 = load i32, ptr %53, align 8, !tbaa !29
  %55 = icmp ne i32 %54, 0
  br i1 %55, label %56, label %118

56:                                               ; preds = %41
  %57 = load ptr, ptr %7, align 8, !tbaa !45
  %58 = getelementptr inbounds nuw %struct.CodedBitstreamFragment, ptr %57, i32 0, i32 4
  %59 = load i32, ptr %58, align 8, !tbaa !53
  %60 = sub nsw i32 %59, 1
  store i32 %60, ptr %9, align 4, !tbaa !30
  br label %61

61:                                               ; preds = %114, %56
  %62 = load i32, ptr %9, align 4, !tbaa !30
  %63 = icmp sge i32 %62, 0
  br i1 %63, label %64, label %117

64:                                               ; preds = %61
  store i32 0, ptr %10, align 4, !tbaa !30
  br label %65

65:                                               ; preds = %90, %64
  %66 = load i32, ptr %10, align 4, !tbaa !30
  %67 = load ptr, ptr %6, align 8, !tbaa !16
  %68 = getelementptr inbounds nuw %struct.FilterUnitsContext, ptr %67, i32 0, i32 9
  %69 = load i32, ptr %68, align 8, !tbaa !54
  %70 = icmp slt i32 %66, %69
  br i1 %70, label %71, label %93

71:                                               ; preds = %65
  %72 = load ptr, ptr %7, align 8, !tbaa !45
  %73 = getelementptr inbounds nuw %struct.CodedBitstreamFragment, ptr %72, i32 0, i32 6
  %74 = load ptr, ptr %73, align 8, !tbaa !55
  %75 = load i32, ptr %9, align 4, !tbaa !30
  %76 = sext i32 %75 to i64
  %77 = getelementptr inbounds %struct.CodedBitstreamUnit, ptr %74, i64 %76
  %78 = getelementptr inbounds nuw %struct.CodedBitstreamUnit, ptr %77, i32 0, i32 0
  %79 = load i32, ptr %78, align 8, !tbaa !56
  %80 = load ptr, ptr %6, align 8, !tbaa !16
  %81 = getelementptr inbounds nuw %struct.FilterUnitsContext, ptr %80, i32 0, i32 8
  %82 = load ptr, ptr %81, align 8, !tbaa !38
  %83 = load i32, ptr %10, align 4, !tbaa !30
  %84 = sext i32 %83 to i64
  %85 = getelementptr inbounds i32, ptr %82, i64 %84
  %86 = load i32, ptr %85, align 4, !tbaa !30
  %87 = icmp eq i32 %79, %86
  br i1 %87, label %88, label %89

88:                                               ; preds = %71
  br label %93

89:                                               ; preds = %71
  br label %90

90:                                               ; preds = %89
  %91 = load i32, ptr %10, align 4, !tbaa !30
  %92 = add nsw i32 %91, 1
  store i32 %92, ptr %10, align 4, !tbaa !30
  br label %65, !llvm.loop !58

93:                                               ; preds = %88, %65
  %94 = load ptr, ptr %6, align 8, !tbaa !16
  %95 = getelementptr inbounds nuw %struct.FilterUnitsContext, ptr %94, i32 0, i32 7
  %96 = load i32, ptr %95, align 8, !tbaa !29
  %97 = icmp eq i32 %96, 2
  br i1 %97, label %98, label %104

98:                                               ; preds = %93
  %99 = load i32, ptr %10, align 4, !tbaa !30
  %100 = load ptr, ptr %6, align 8, !tbaa !16
  %101 = getelementptr inbounds nuw %struct.FilterUnitsContext, ptr %100, i32 0, i32 9
  %102 = load i32, ptr %101, align 8, !tbaa !54
  %103 = icmp slt i32 %99, %102
  br i1 %103, label %110, label %113

104:                                              ; preds = %93
  %105 = load i32, ptr %10, align 4, !tbaa !30
  %106 = load ptr, ptr %6, align 8, !tbaa !16
  %107 = getelementptr inbounds nuw %struct.FilterUnitsContext, ptr %106, i32 0, i32 9
  %108 = load i32, ptr %107, align 8, !tbaa !54
  %109 = icmp sge i32 %105, %108
  br i1 %109, label %110, label %113

110:                                              ; preds = %104, %98
  %111 = load ptr, ptr %7, align 8, !tbaa !45
  %112 = load i32, ptr %9, align 4, !tbaa !30
  call void @ff_cbs_delete_unit(ptr noundef %111, i32 noundef %112)
  br label %113

113:                                              ; preds = %110, %104, %98
  br label %114

114:                                              ; preds = %113
  %115 = load i32, ptr %9, align 4, !tbaa !30
  %116 = add nsw i32 %115, -1
  store i32 %116, ptr %9, align 4, !tbaa !30
  br label %61, !llvm.loop !60

117:                                              ; preds = %61
  br label %118

118:                                              ; preds = %117, %41
  %119 = load ptr, ptr %7, align 8, !tbaa !45
  %120 = getelementptr inbounds nuw %struct.CodedBitstreamFragment, ptr %119, i32 0, i32 4
  %121 = load i32, ptr %120, align 8, !tbaa !53
  %122 = icmp eq i32 %121, 0
  br i1 %122, label %123, label %124

123:                                              ; preds = %118
  store i32 -11, ptr %8, align 4, !tbaa !30
  br label %136

124:                                              ; preds = %118
  %125 = load ptr, ptr %6, align 8, !tbaa !16
  %126 = getelementptr inbounds nuw %struct.FilterUnitsContext, ptr %125, i32 0, i32 1
  %127 = load ptr, ptr %126, align 8, !tbaa !39
  %128 = load ptr, ptr %5, align 8, !tbaa !48
  %129 = load ptr, ptr %7, align 8, !tbaa !45
  %130 = call i32 @ff_cbs_write_packet(ptr noundef %127, ptr noundef %128, ptr noundef %129)
  store i32 %130, ptr %8, align 4, !tbaa !30
  %131 = load i32, ptr %8, align 4, !tbaa !30
  %132 = icmp slt i32 %131, 0
  br i1 %132, label %133, label %135

133:                                              ; preds = %124
  %134 = load ptr, ptr %4, align 8, !tbaa !4
  call void (ptr, i32, ptr, ...) @av_log(ptr noundef %134, i32 noundef 16, ptr noundef @.str.33)
  br label %136

135:                                              ; preds = %124
  br label %136

136:                                              ; preds = %135, %133, %123, %39
  %137 = load i32, ptr %8, align 4, !tbaa !30
  %138 = icmp slt i32 %137, 0
  br i1 %138, label %139, label %141

139:                                              ; preds = %136
  %140 = load ptr, ptr %5, align 8, !tbaa !48
  call void @av_packet_unref(ptr noundef %140)
  br label %141

141:                                              ; preds = %139, %136
  %142 = load ptr, ptr %7, align 8, !tbaa !45
  call void @ff_cbs_fragment_reset(ptr noundef %142)
  %143 = load i32, ptr %8, align 4, !tbaa !30
  store i32 %143, ptr %3, align 4
  store i32 1, ptr %11, align 4
  br label %144

144:                                              ; preds = %141, %29, %22
  call void @llvm.lifetime.end.p0(i64 4, ptr %10) #4
  call void @llvm.lifetime.end.p0(i64 4, ptr %9) #4
  call void @llvm.lifetime.end.p0(i64 4, ptr %8) #4
  call void @llvm.lifetime.end.p0(i64 8, ptr %7) #4
  call void @llvm.lifetime.end.p0(i64 8, ptr %6) #4
  %145 = load i32, ptr %3, align 4
  ret i32 %145
}