; Function Attrs: nounwind uwtable
define internal i32 @filter_units_filter(ptr noundef %0, ptr noundef %1) #0 {
  %3 = getelementptr inbounds nuw i8, ptr %0, i64 16
  %4 = load ptr, ptr %3, align 8, !tbaa !4
  %5 = getelementptr inbounds nuw i8, ptr %4, i64 16
  %6 = tail call i32 @ff_bsf_get_packet_ref(ptr noundef %0, ptr noundef %1) #4
  %7 = icmp slt i32 %6, 0
  br i1 %7, label %60, label %8

8:                                                ; preds = %2
  %9 = getelementptr inbounds nuw i8, ptr %4, i64 108
  %10 = load i8, ptr %9, align 4, !tbaa !27, !range !41, !noundef !42
  %11 = trunc nuw i8 %10 to i1
  br i1 %11, label %60, label %12

12:                                               ; preds = %8
  %13 = getelementptr inbounds nuw i8, ptr %4, i64 8
  %14 = load ptr, ptr %13, align 8, !tbaa !34
  %15 = tail call i32 @ff_cbs_read_packet(ptr noundef %14, ptr noundef nonnull %5, ptr noundef %1) #4
  %16 = icmp slt i32 %15, 0
  br i1 %16, label %.sink.split, label %17

17:                                               ; preds = %12
  %18 = load ptr, ptr %13, align 8, !tbaa !34
  %19 = getelementptr inbounds nuw i8, ptr %4, i64 80
  %20 = load i32, ptr %19, align 8, !tbaa !26
  %21 = getelementptr inbounds nuw i8, ptr %4, i64 84
  %22 = load i32, ptr %21, align 4, !tbaa !43
  tail call void @ff_cbs_discard_units(ptr noundef %18, ptr noundef nonnull %5, i32 noundef %20, i32 noundef %22) #4
  %23 = getelementptr inbounds nuw i8, ptr %4, i64 88
  %24 = load i32, ptr %23, align 8, !tbaa !25
  %.not = icmp eq i32 %24, 0
  br i1 %.not, label %.loopexit, label %25

25:                                               ; preds = %17
  %26 = getelementptr inbounds nuw i8, ptr %4, i64 48
  %27 = load i32, ptr %26, align 8, !tbaa !44
  %28 = icmp sgt i32 %27, 0
  br i1 %28, label %.preheader.lr.ph, label %.loopexit

.preheader.lr.ph:                                 ; preds = %25
  %29 = getelementptr inbounds nuw i8, ptr %4, i64 104
  %30 = getelementptr inbounds nuw i8, ptr %4, i64 56
  %31 = getelementptr inbounds nuw i8, ptr %4, i64 96
  %32 = zext nneg i32 %27 to i64
  br label %.preheader

.preheader:                                       ; preds = %.preheader.lr.ph, %.thread51
  %indvars.iv61 = phi i64 [ %32, %.preheader.lr.ph ], [ %indvars.iv.next62, %.thread51 ]
  %indvars.iv.next62 = add nsw i64 %indvars.iv61, -1
  %33 = load i32, ptr %29, align 8, !tbaa !45
  %34 = icmp sgt i32 %33, 0
  br i1 %34, label %.lr.ph, label %.thread

.lr.ph:                                           ; preds = %.preheader
  %35 = load ptr, ptr %30, align 8, !tbaa !46
  %36 = getelementptr inbounds nuw %struct.CodedBitstreamUnit, ptr %35, i64 %indvars.iv.next62
  %37 = load i32, ptr %36, align 8, !tbaa !47
  %38 = load ptr, ptr %31, align 8, !tbaa !33
  %wide.trip.count = zext nneg i32 %33 to i64
  br label %40

39:                                               ; preds = %40
  %indvars.iv.next = add nuw nsw i64 %indvars.iv, 1
  %exitcond.not = icmp eq i64 %indvars.iv.next, %wide.trip.count
  br i1 %exitcond.not, label %.thread, label %40, !llvm.loop !49

40:                                               ; preds = %.lr.ph, %39
  %indvars.iv = phi i64 [ 0, %.lr.ph ], [ %indvars.iv.next, %39 ]
  %41 = getelementptr inbounds nuw i32, ptr %38, i64 %indvars.iv
  %42 = load i32, ptr %41, align 4, !tbaa !51
  %43 = icmp eq i32 %37, %42
  br i1 %43, label %44, label %39

44:                                               ; preds = %40
  %45 = load i32, ptr %23, align 8, !tbaa !25
  %46 = icmp eq i32 %45, 2
  br i1 %46, label %.thread52, label %.thread51

.thread:                                          ; preds = %39, %.preheader
  %47 = load i32, ptr %23, align 8, !tbaa !25
  %48 = icmp eq i32 %47, 2
  br i1 %48, label %.thread51, label %.thread52

.thread52:                                        ; preds = %.thread, %44
  %49 = trunc nuw nsw i64 %indvars.iv.next62 to i32
  tail call void @ff_cbs_delete_unit(ptr noundef nonnull %5, i32 noundef %49) #4
  br label %.thread51

.thread51:                                        ; preds = %.thread, %44, %.thread52
  %50 = icmp sgt i64 %indvars.iv61, 1
  br i1 %50, label %.preheader, label %.loopexit, !llvm.loop !52

.loopexit:                                        ; preds = %.thread51, %25, %17
  %51 = getelementptr inbounds nuw i8, ptr %4, i64 48
  %52 = load i32, ptr %51, align 8, !tbaa !44
  %53 = icmp eq i32 %52, 0
  br i1 %53, label %58, label %54

54:                                               ; preds = %.loopexit
  %55 = load ptr, ptr %13, align 8, !tbaa !34
  %56 = tail call i32 @ff_cbs_write_packet(ptr noundef %55, ptr noundef %1, ptr noundef nonnull %5) #4
  %57 = icmp slt i32 %56, 0
  br i1 %57, label %.sink.split, label %59

.sink.split:                                      ; preds = %54, %12
  %.str.32.sink = phi ptr [ @.str.32, %12 ], [ @.str.33, %54 ]
  %.045.ph.ph = phi i32 [ %15, %12 ], [ %56, %54 ]
  tail call void (ptr, i32, ptr, ...) @av_log(ptr noundef %0, i32 noundef 16, ptr noundef nonnull %.str.32.sink) #4
  br label %58

58:                                               ; preds = %.sink.split, %.loopexit
  %.045.ph = phi i32 [ -11, %.loopexit ], [ %.045.ph.ph, %.sink.split ]
  tail call void @av_packet_unref(ptr noundef %1) #4
  br label %59

59:                                               ; preds = %54, %58
  %.04555 = phi i32 [ %.045.ph, %58 ], [ %56, %54 ]
  tail call void @ff_cbs_fragment_reset(ptr noundef nonnull %5) #4
  br label %60

60:                                               ; preds = %8, %2, %59
  %.046 = phi i32 [ %.04555, %59 ], [ %6, %2 ], [ 0, %8 ]
  ret i32 %.046
}